target datalayout = "e-m:e-p270:32:32-p271:32:32-p272:64:64-i64:64-i128:128-f80:128-n8:16:32:64-S128"
target triple = "x86_64-pc-linux-gnu"

%struct.htree_node = type { i32, ptr, ptr, i32, i32 }
%struct.htree_leaf = type { i32, i32, i32, i32 }
%struct.codelength = type { i32, i32, i32, i32 }

; Function Attrs: nounwind uwtable
define internal void @assign_codes(ptr noundef %0, ptr noundef %1, i32 noundef %2, i32 noundef %3, i32 noundef %4) #0 {
  %6 = alloca ptr, align 8
  %7 = alloca ptr, align 8
  %8 = alloca i32, align 4
  %9 = alloca i32, align 4
  %10 = alloca i32, align 4
  store ptr %0, ptr %6, align 8, !tbaa !12
  store ptr %1, ptr %7, align 8, !tbaa !14
  store i32 %2, ptr %8, align 4, !tbaa !8
  store i32 %3, ptr %9, align 4, !tbaa !8
  store i32 %4, ptr %10, align 4, !tbaa !8
  %11 = load ptr, ptr %6, align 8, !tbaa !12
  %12 = load i32, ptr %11, align 8, !tbaa !16
  %13 = icmp eq i32 %12, 0
  br i1 %13, label %14, label %37

14:                                               ; preds = %5
  %15 = load i32, ptr %9, align 4, !tbaa !8
  %16 = add nsw i32 %15, 1
  %17 = load ptr, ptr %7, align 8, !tbaa !14
  %18 = load ptr, ptr %6, align 8, !tbaa !12
  %19 = getelementptr inbounds nuw %struct.htree_leaf, ptr %18, i32 0, i32 1
  %20 = load i32, ptr %19, align 4, !tbaa !16
  %21 = zext i32 %20 to i64
  %22 = getelementptr inbounds nuw %struct.codelength, ptr %17, i64 %21
  %23 = getelementptr inbounds nuw %struct.codelength, ptr %22, i32 0, i32 1
  store i32 %16, ptr %23, align 4, !tbaa !21
  %24 = load i32, ptr %8, align 4, !tbaa !8
  %25 = shl i32 %24, 1
  %26 = load ptr, ptr %6, align 8, !tbaa !12
  %27 = getelementptr inbounds nuw %struct.htree_leaf, ptr %26, i32 0, i32 3
  %28 = load i32, ptr %27, align 4, !tbaa !16
  %29 = or i32 %25, %28
  %30 = load ptr, ptr %7, align 8, !tbaa !14
  %31 = load ptr, ptr %6, align 8, !tbaa !12
  %32 = getelementptr inbounds nuw %struct.htree_leaf, ptr %31, i32 0, i32 1
  %33 = load i32, ptr %32, align 4, !tbaa !16
  %34 = zext i32 %33 to i64
  %35 = getelementptr inbounds nuw %struct.codelength, ptr %30, i64 %34
  %36 = getelementptr inbounds nuw %struct.codelength, ptr %35, i32 0, i32 0
  store i32 %29, ptr %36, align 4, !tbaa !19
  br label %63

37:                                               ; preds = %5
  %38 = load i32, ptr %10, align 4, !tbaa !8
  %39 = icmp ne i32 %38, 0
  br i1 %39, label %50, label %40

40:                                               ; preds = %37
  %41 = load i32, ptr %8, align 4, !tbaa !8
  %42 = shl i32 %41, 1
  store i32 %42, ptr %8, align 4, !tbaa !8
  %43 = load ptr, ptr %6, align 8, !tbaa !12
  %44 = getelementptr inbounds nuw %struct.htree_node, ptr %43, i32 0, i32 3
  %45 = load i32, ptr %44, align 8, !tbaa !16
  %46 = load i32, ptr %8, align 4, !tbaa !8
  %47 = or i32 %46, %45
  store i32 %47, ptr %8, align 4, !tbaa !8
  %48 = load i32, ptr %9, align 4, !tbaa !8
  %49 = add nsw i32 %48, 1
  store i32 %49, ptr %9, align 4, !tbaa !8
  br label %50

50:                                               ; preds = %40, %37
  %51 = load ptr, ptr %6, align 8, !tbaa !12
  %52 = getelementptr inbounds nuw %struct.htree_node, ptr %51, i32 0, i32 1
  %53 = load ptr, ptr %52, align 8, !tbaa !16
  %54 = load ptr, ptr %7, align 8, !tbaa !14
  %55 = load i32, ptr %8, align 4, !tbaa !8
  %56 = load i32, ptr %9, align 4, !tbaa !8
  call void @assign_codes(ptr noundef %53, ptr noundef %54, i32 noundef %55, i32 noundef %56, i32 noundef 0)
  %57 = load ptr, ptr %6, align 8, !tbaa !12
  %58 = getelementptr inbounds nuw %struct.htree_node, ptr %57, i32 0, i32 2
  %59 = load ptr, ptr %58, align 8, !tbaa !16
  %60 = load ptr, ptr %7, align 8, !tbaa !14
  %61 = load i32, ptr %8, align 4, !tbaa !8
  %62 = load i32, ptr %9, align 4, !tbaa !8
  call void @assign_codes(ptr noundef %59, ptr noundef %60, i32 noundef %61, i32 noundef %62, i32 noundef 0)
  br label %63

63:                                               ; preds = %50, %14
  ret void
}