; Function Attrs: nofree nosync nounwind memory(readwrite, inaccessiblemem: none) uwtable
define internal fastcc void @assign_codes(ptr noundef readonly captures(none) %0, ptr noundef writeonly captures(none) %1, i32 noundef %2, i32 noundef %3, i32 noundef range(i32 0, 2) %4) unnamed_addr #5 {
  %6 = load i32, ptr %0, align 8, !tbaa !3
  %7 = icmp eq i32 %6, 0
  br i1 %7, label %tailrecurse._crit_edge, label %.lr.ph.preheader

.lr.ph.preheader:                                 ; preds = %5
  %8 = icmp eq i32 %4, 0
  br label %.lr.ph

tailrecurse._crit_edge:                           ; preds = %tailrecurse, %5
  %.tr.lcssa = phi ptr [ %0, %5 ], [ %30, %tailrecurse ]
  %.tr22.lcssa = phi i32 [ %2, %5 ], [ %.0, %tailrecurse ]
  %.tr23.lcssa = phi i32 [ %3, %5 ], [ %.020, %tailrecurse ]
  %9 = add nsw i32 %.tr23.lcssa, 1
  %10 = getelementptr inbounds nuw i8, ptr %.tr.lcssa, i64 4
  %11 = load i32, ptr %10, align 4, !tbaa !3
  %12 = zext i32 %11 to i64
  %13 = getelementptr inbounds nuw %struct.codelength, ptr %1, i64 %12, i32 1
  store i32 %9, ptr %13, align 4, !tbaa !12
  %14 = shl i32 %.tr22.lcssa, 1
  %15 = getelementptr inbounds nuw i8, ptr %.tr.lcssa, i64 12
  %16 = load i32, ptr %15, align 4, !tbaa !3
  %17 = or i32 %16, %14
  %18 = load i32, ptr %10, align 4, !tbaa !3
  %19 = zext i32 %18 to i64
  %20 = getelementptr inbounds nuw %struct.codelength, ptr %1, i64 %19
  store i32 %17, ptr %20, align 4, !tbaa !10
  ret void

.lr.ph:                                           ; preds = %.lr.ph.preheader, %tailrecurse
  %.tr2428 = phi i1 [ true, %tailrecurse ], [ %8, %.lr.ph.preheader ]
  %.tr2327 = phi i32 [ %.020, %tailrecurse ], [ %3, %.lr.ph.preheader ]
  %.tr2226 = phi i32 [ %.0, %tailrecurse ], [ %2, %.lr.ph.preheader ]
  %.tr25 = phi ptr [ %30, %tailrecurse ], [ %0, %.lr.ph.preheader ]
  br i1 %.tr2428, label %21, label %tailrecurse

21:                                               ; preds = %.lr.ph
  %22 = shl i32 %.tr2226, 1
  %23 = getelementptr inbounds nuw i8, ptr %.tr25, i64 24
  %24 = load i32, ptr %23, align 8, !tbaa !3
  %25 = or i32 %24, %22
  %26 = add nsw i32 %.tr2327, 1
  br label %tailrecurse

tailrecurse:                                      ; preds = %21, %.lr.ph
  %.020 = phi i32 [ %.tr2327, %.lr.ph ], [ %26, %21 ]
  %.0 = phi i32 [ %.tr2226, %.lr.ph ], [ %25, %21 ]
  %27 = getelementptr inbounds nuw i8, ptr %.tr25, i64 8
  %28 = load ptr, ptr %27, align 8, !tbaa !3
  tail call fastcc void @assign_codes(ptr noundef %28, ptr noundef %1, i32 noundef %.0, i32 noundef %.020, i32 noundef 0)
  %29 = getelementptr inbounds nuw i8, ptr %.tr25, i64 16
  %30 = load ptr, ptr %29, align 8, !tbaa !3
  %31 = load i32, ptr %30, align 8, !tbaa !3
  %32 = icmp eq i32 %31, 0
  br i1 %32, label %tailrecurse._crit_edge, label %.lr.ph
}